; Function Attrs: mustprogress uwtable
define hidden noundef nonnull ptr @_ZN10duckdb_re29Prefilter4Info5QuestEPS1_(ptr noundef %0) local_unnamed_addr #0 align 2 personality ptr @__gxx_personality_v0 {
  %2 = tail call noalias noundef nonnull dereferenceable(64) ptr @_Znwm(i64 noundef 64) #20
  %3 = getelementptr inbounds nuw i8, ptr %2, i64 8
  store i32 0, ptr %3, align 8, !tbaa !40
  %4 = getelementptr inbounds nuw i8, ptr %2, i64 16
  store ptr null, ptr %4, align 8, !tbaa !41
  %5 = getelementptr inbounds nuw i8, ptr %2, i64 24
  store ptr %3, ptr %5, align 8, !tbaa !31
  %6 = getelementptr inbounds nuw i8, ptr %2, i64 32
  store ptr %3, ptr %6, align 8, !tbaa !42
  %7 = getelementptr inbounds nuw i8, ptr %2, i64 40
  %8 = getelementptr inbounds nuw i8, ptr %2, i64 56
  store ptr null, ptr %8, align 8, !tbaa !51
  tail call void @llvm.memset.p0.i64(ptr noundef nonnull align 8 dereferenceable(9) %7, i8 0, i64 9, i1 false)
  %9 = tail call noalias noundef nonnull dereferenceable(56) ptr @_Znwm(i64 noundef 56) #20
  %10 = getelementptr inbounds nuw i8, ptr %9, i64 16
  %11 = getelementptr inbounds nuw i8, ptr %9, i64 32
  store ptr %11, ptr %10, align 8, !tbaa !3
  %12 = getelementptr inbounds nuw i8, ptr %9, i64 24
  store i64 0, ptr %12, align 8, !tbaa !9
  store i8 0, ptr %11, align 1, !tbaa !12
  store i32 0, ptr %9, align 8, !tbaa !13
  %13 = getelementptr inbounds nuw i8, ptr %9, i64 8
  store ptr null, ptr %13, align 8, !tbaa !18
  store ptr %9, ptr %8, align 8, !tbaa !51
  %14 = icmp eq ptr %0, null
  br i1 %14, label %26, label %15

15:                                               ; preds = %1
  %16 = getelementptr inbounds nuw i8, ptr %0, i64 56
  %17 = load ptr, ptr %16, align 8, !tbaa !51
  %18 = icmp eq ptr %17, null
  br i1 %18, label %20, label %19

19:                                               ; preds = %15
  tail call void @_ZN10duckdb_re29PrefilterD2Ev(ptr noundef nonnull align 8 dereferenceable(52) %17) #21
  tail call void @_ZdlPv(ptr noundef nonnull %17) #22
  br label %20

20:                                               ; preds = %19, %15
  %21 = getelementptr inbounds nuw i8, ptr %0, i64 16
  %22 = load ptr, ptr %21, align 8, !tbaa !41
  invoke void @_ZNSt8_Rb_treeINSt7__cxx1112basic_stringIcSt11char_traitsIcESaIcEEES5_St9_IdentityIS5_EN10duckdb_re29Prefilter13LengthThenLexESaIS5_EE8_M_eraseEPSt13_Rb_tree_nodeIS5_E(ptr noundef nonnull align 8 dereferenceable(64) %0, ptr noundef %22)
          to label %_ZN10duckdb_re29Prefilter4InfoD2Ev.exit unwind label %23

23:                                               ; preds = %20
  %24 = landingpad { ptr, i32 }
          catch ptr null
  %25 = extractvalue { ptr, i32 } %24, 0
  tail call void @__clang_call_terminate(ptr %25) #25
  unreachable

_ZN10duckdb_re29Prefilter4InfoD2Ev.exit:          ; preds = %20
  tail call void @_ZdlPv(ptr noundef nonnull %0) #22
  br label %26

26:                                               ; preds = %_ZN10duckdb_re29Prefilter4InfoD2Ev.exit, %1
  ret ptr %2
}